; Function Attrs: nounwind uwtable
define zeroext range(i8 0, 2) i8 @l___private_Lean_Compiler_IR_RC_0__Lean_IR_ExplicitRC_isBorrowParamAux(ptr noundef %0, ptr noundef readonly captures(none) %1, ptr noundef %2) local_unnamed_addr #0 {
lean_dec.exit:
  %3 = getelementptr i8, ptr %1, i64 8
  %.val = load i64, ptr %3, align 8, !tbaa !13
  %4 = shl i64 %.val, 1
  %5 = or disjoint i64 %4, 1
  %6 = inttoptr i64 %5 to ptr
  %7 = tail call zeroext i8 @l_Nat_anyTR_loop___at___private_Lean_Compiler_IR_RC_0__Lean_IR_ExplicitRC_isBorrowParamAux___spec__1(ptr noundef %0, ptr noundef %1, ptr noundef %2, ptr noundef nonnull %6, ptr noundef nonnull %6, ptr nonnull poison)
  ret i8 %7
}